target datalayout = "e-m:e-p270:32:32-p271:32:32-p272:64:64-i64:64-i128:128-f80:128-n8:16:32:64-S128"
target triple = "x86_64-pc-linux-gnu"

%struct.gie_ctx = type { [10001 x i8], [10001 x i8], [10001 x i8], ptr, %union.PJ_COORD, %union.PJ_COORD, %union.PJ_COORD, i32, i32, i32, i32, i32, i32, i32, i32, i32, i32, i32, i32, i32, i64, i64, i64, double, i32, i32, i32, ptr, ptr }
%union.PJ_COORD = type { [4 x double] }

@_ZL1T = internal global %struct.gie_ctx zeroinitializer, align 8

; Function Attrs: mustprogress nounwind uwtable
define linkonce_odr dso_local noundef zeroext i1 @_ZSt5isnand(double noundef %0) #0 comdat {
  %2 = alloca double, align 8
  store double %0, ptr %2, align 8
  %3 = load double, ptr %2, align 8
  %4 = call i1 @llvm.is.fpclass.f64(double %3, i32 3)
  ret i1 %4
}

; Function Attrs: mustprogress uwtable
define internal void @_ZL11parse_coordPKc(ptr dead_on_unwind noalias writable sret(%union.PJ_COORD) align 8 %0, ptr noundef %1) #1 {
  %3 = alloca ptr, align 8
  %4 = alloca i32, align 4
  %5 = alloca ptr, align 8
  %6 = alloca ptr, align 8
  %7 = alloca ptr, align 8
  %8 = alloca %union.PJ_COORD, align 8
  %9 = alloca double, align 8
  %10 = alloca double, align 8
  store ptr %1, ptr %3, align 8
  %11 = load ptr, ptr %3, align 8
  store ptr %11, ptr %7, align 8
  call void @proj_coord(ptr dead_on_unwind writable sret(%union.PJ_COORD) align 8 %8, double noundef 0.000000e+00, double noundef 0.000000e+00, double noundef 0.000000e+00, double noundef 0.000000e+00)
  store i64 0, ptr getelementptr inbounds (%struct.gie_ctx, ptr @_ZL1T, i32 0, i32 21), align 8
  store i32 0, ptr %4, align 4
  br label %12

12:                                               ; preds = %84, %2
  %13 = load i32, ptr %4, align 4
  %14 = icmp slt i32 %13, 4
  br i1 %14, label %15, label %87

15:                                               ; preds = %12
  %16 = load ptr, ptr %7, align 8
  %17 = call noundef double @_Z11proj_strtodPKcPPc(ptr noundef %16, ptr noundef %5)
  store double %17, ptr %9, align 8
  %18 = load double, ptr %9, align 8
  %19 = call noundef zeroext i1 @_ZSt5isnand(double noundef %18)
  br i1 %19, label %66, label %20

20:                                               ; preds = %15
  %21 = load ptr, ptr %5, align 8
  %22 = load i8, ptr %21, align 1
  %23 = sext i8 %22 to i32
  %24 = icmp ne i32 %23, 0
  br i1 %24, label %25, label %66

25:                                               ; preds = %20
  %26 = load ptr, ptr %5, align 8
  %27 = load i8, ptr %26, align 1
  %28 = sext i8 %27 to i32
  %29 = call i32 @isspace(i32 noundef %28) #14
  %30 = icmp ne i32 %29, 0
  br i1 %30, label %66, label %31

31:                                               ; preds = %25
  %32 = load ptr, ptr %7, align 8
  %33 = call double @proj_dmstor(ptr noundef %32, ptr noundef %6)
  %34 = fmul double %33, 1.800000e+02
  %35 = fdiv double %34, 0x400921FB54442D18
  store double %35, ptr %10, align 8
  %36 = load double, ptr %9, align 8
  %37 = load double, ptr %10, align 8
  %38 = fcmp une double %36, %37
  br i1 %38, label %39, label %55

39:                                               ; preds = %31
  %40 = load double, ptr %9, align 8
  %41 = call double @llvm.fabs.f64(double %40)
  %42 = load double, ptr %10, align 8
  %43 = call double @llvm.fabs.f64(double %42)
  %44 = fcmp olt double %41, %43
  br i1 %44, label %45, label %55

45:                                               ; preds = %39
  %46 = load double, ptr %10, align 8
  %47 = call double @llvm.fabs.f64(double %46)
  %48 = load double, ptr %9, align 8
  %49 = call double @llvm.fabs.f64(double %48)
  %50 = fadd double %49, 1.000000e+00
  %51 = fcmp olt double %47, %50
  br i1 %51, label %52, label %55

52:                                               ; preds = %45
  %53 = load double, ptr %10, align 8
  store double %53, ptr %9, align 8
  %54 = load ptr, ptr %6, align 8
  store ptr %54, ptr %5, align 8
  br label %55

55:                                               ; preds = %52, %45, %39, %31
  %56 = load double, ptr %9, align 8
  %57 = load double, ptr %10, align 8
  %58 = fcmp oeq double %56, %57
  br i1 %58, label %59, label %65

59:                                               ; preds = %55
  %60 = load ptr, ptr %5, align 8
  %61 = load ptr, ptr %6, align 8
  %62 = icmp ne ptr %60, %61
  br i1 %62, label %63, label %65

63:                                               ; preds = %59
  %64 = load ptr, ptr %6, align 8
  store ptr %64, ptr %5, align 8
  br label %65

65:                                               ; preds = %63, %59, %55
  br label %66

66:                                               ; preds = %65, %25, %20, %15
  %67 = load ptr, ptr %7, align 8
  %68 = load ptr, ptr %5, align 8
  %69 = icmp eq ptr %67, %68
  br i1 %69, label %70, label %76

70:                                               ; preds = %66
  %71 = load i32, ptr %4, align 4
  %72 = icmp sgt i32 %71, 1
  br i1 %72, label %73, label %74

73:                                               ; preds = %70
  call void @llvm.memcpy.p0.p0.i64(ptr align 8 %0, ptr align 8 %8, i64 32, i1 false)
  br label %75

74:                                               ; preds = %70
  call void @_Z16proj_coord_errorv(ptr dead_on_unwind writable sret(%union.PJ_COORD) align 8 %0)
  br label %75

75:                                               ; preds = %74, %73
  br label %88

76:                                               ; preds = %66
  %77 = load double, ptr %9, align 8
  %78 = load i32, ptr %4, align 4
  %79 = sext i32 %78 to i64
  %80 = getelementptr inbounds [4 x double], ptr %8, i64 0, i64 %79
  store double %77, ptr %80, align 8
  %81 = load ptr, ptr %5, align 8
  store ptr %81, ptr %7, align 8
  %82 = load i64, ptr getelementptr inbounds (%struct.gie_ctx, ptr @_ZL1T, i32 0, i32 21), align 8
  %83 = add i64 %82, 1
  store i64 %83, ptr getelementptr inbounds (%struct.gie_ctx, ptr @_ZL1T, i32 0, i32 21), align 8
  br label %84

84:                                               ; preds = %76
  %85 = load i32, ptr %4, align 4
  %86 = add nsw i32 %85, 1
  store i32 %86, ptr %4, align 4
  br label %12, !llvm.loop !30

87:                                               ; preds = %12
  call void @llvm.memcpy.p0.p0.i64(ptr align 8 %0, ptr align 8 %8, i64 32, i1 false)
  br label %88

88:                                               ; preds = %87, %75
  ret void
}