; Function Attrs: mustprogress norecurse uwtable
define internal fastcc void @_ZL11parse_coordPKc(ptr dead_on_unwind noalias writable align 8 %0, ptr noundef %1) unnamed_addr #10 {
  %3 = alloca ptr, align 8
  %4 = alloca ptr, align 8
  %5 = alloca %union.PJ_COORD, align 8
  call void @proj_coord(ptr dead_on_unwind nonnull writable sret(%union.PJ_COORD) align 8 %5, double noundef 0.000000e+00, double noundef 0.000000e+00, double noundef 0.000000e+00, double noundef 0.000000e+00)
  store i64 0, ptr getelementptr inbounds (%struct.gie_ctx, ptr @_ZL1T, i64 0, i32 21), align 8
  br label %6

6:                                                ; preds = %2, %39
  %indvars.iv = phi i64 [ 0, %2 ], [ %indvars.iv.next, %39 ]
  %.01931 = phi ptr [ %1, %2 ], [ %33, %39 ]
  %7 = call noundef double @_Z11proj_strtodPKcPPc(ptr noundef %.01931, ptr noundef nonnull %3)
  %8 = fcmp uno double %7, 0.000000e+00
  %.pre35 = load ptr, ptr %3, align 8
  br i1 %8, label %32, label %9

9:                                                ; preds = %6
  %10 = load i8, ptr %.pre35, align 1
  %.not = icmp eq i8 %10, 0
  br i1 %.not, label %32, label %11

11:                                               ; preds = %9
  %12 = sext i8 %10 to i32
  %13 = call i32 @isspace(i32 noundef %12) #27
  %.not27 = icmp eq i32 %13, 0
  br i1 %.not27, label %14, label %32

14:                                               ; preds = %11
  %15 = call double @proj_dmstor(ptr noundef %.01931, ptr noundef nonnull %4)
  %16 = fmul double %15, 1.800000e+02
  %17 = fdiv double %16, 0x400921FB54442D18
  %18 = fcmp une double %7, %17
  br i1 %18, label %19, label %27

19:                                               ; preds = %14
  %20 = call double @llvm.fabs.f64(double %7)
  %21 = call double @llvm.fabs.f64(double %17)
  %22 = fcmp olt double %20, %21
  %23 = fadd double %20, 1.000000e+00
  %24 = fcmp olt double %21, %23
  %or.cond = and i1 %22, %24
  br i1 %or.cond, label %25, label %27

25:                                               ; preds = %19
  %26 = load ptr, ptr %4, align 8
  store ptr %26, ptr %3, align 8
  br label %27

27:                                               ; preds = %25, %19, %14
  %.018 = phi double [ %17, %25 ], [ %7, %19 ], [ %7, %14 ]
  %28 = fcmp oeq double %.018, %17
  %.pre = load ptr, ptr %3, align 8
  br i1 %28, label %29, label %32

29:                                               ; preds = %27
  %30 = load ptr, ptr %4, align 8
  %.not28 = icmp eq ptr %.pre, %30
  br i1 %.not28, label %32, label %31

31:                                               ; preds = %29
  store ptr %30, ptr %3, align 8
  br label %32

32:                                               ; preds = %27, %29, %31, %11, %9, %6
  %33 = phi ptr [ %.pre35, %6 ], [ %.pre35, %11 ], [ %30, %31 ], [ %.pre, %29 ], [ %.pre, %27 ], [ %.pre35, %9 ]
  %.1 = phi double [ %7, %6 ], [ %7, %11 ], [ %.018, %31 ], [ %.018, %29 ], [ %.018, %27 ], [ %7, %9 ]
  %34 = icmp eq ptr %.01931, %33
  br i1 %34, label %35, label %39

35:                                               ; preds = %32
  %36 = and i64 %indvars.iv, 4294967294
  %.not36 = icmp eq i64 %36, 0
  br i1 %.not36, label %38, label %37

37:                                               ; preds = %35
  call void @llvm.memcpy.p0.p0.i64(ptr noundef nonnull align 8 dereferenceable(32) %0, ptr noundef nonnull align 8 dereferenceable(32) %5, i64 32, i1 false)
  br label %44

38:                                               ; preds = %35
  call void @_Z16proj_coord_errorv(ptr dead_on_unwind writable sret(%union.PJ_COORD) align 8 %0)
  br label %44

39:                                               ; preds = %32
  %40 = getelementptr inbounds [4 x double], ptr %5, i64 0, i64 %indvars.iv
  store double %.1, ptr %40, align 8
  %41 = load i64, ptr getelementptr inbounds (%struct.gie_ctx, ptr @_ZL1T, i64 0, i32 21), align 8
  %42 = add i64 %41, 1
  store i64 %42, ptr getelementptr inbounds (%struct.gie_ctx, ptr @_ZL1T, i64 0, i32 21), align 8
  %indvars.iv.next = add nuw nsw i64 %indvars.iv, 1
  %exitcond.not = icmp eq i64 %indvars.iv.next, 4
  br i1 %exitcond.not, label %43, label %6, !llvm.loop !54

43:                                               ; preds = %39
  call void @llvm.memcpy.p0.p0.i64(ptr noundef nonnull align 8 dereferenceable(32) %0, ptr noundef nonnull align 8 dereferenceable(32) %5, i64 32, i1 false)
  br label %44

44:                                               ; preds = %37, %38, %43
  ret void
}